; Function Attrs: nounwind uwtable
define ptr @l_Std_Channel_send___rarg___lambda__1(ptr noundef %0, ptr noundef %1) local_unnamed_addr #1 {
  %3 = ptrtoint ptr %0 to i64
  %4 = and i64 %3, 1
  %.not.i = icmp eq i64 %4, 0
  br i1 %.not.i, label %8, label %5

5:                                                ; preds = %2
  %6 = lshr i64 %3, 1
  %7 = trunc i64 %6 to i32
  br label %lean_obj_tag.exit

8:                                                ; preds = %2
  %9 = getelementptr i8, ptr %0, i64 4
  %.val.i = load i32, ptr %9, align 4
  %10 = lshr i32 %.val.i, 24
  br label %lean_obj_tag.exit

lean_obj_tag.exit:                                ; preds = %5, %8
  %.0.i = phi i32 [ %7, %5 ], [ %10, %8 ]
  %11 = icmp eq i32 %.0.i, 0
  br i1 %11, label %12, label %17

12:                                               ; preds = %lean_obj_tag.exit
  %13 = load ptr, ptr @l_Std_Channel_send___rarg___lambda__1___closed__4, align 8, !tbaa !10
  %14 = load ptr, ptr @l_panic___at_Std_Channel_send___spec__1___closed__2, align 8, !tbaa !10
  %15 = tail call ptr @lean_panic_fn(ptr noundef %14, ptr noundef %13) #7
  %16 = tail call ptr @lean_apply_1(ptr noundef %15, ptr noundef %1) #7
  br label %25

17:                                               ; preds = %lean_obj_tag.exit
  %18 = load ptr, ptr @l_Std_CloseableChannel_forAsync___rarg___lambda__1___closed__1, align 8, !tbaa !10
  tail call void @lean_inc_heartbeat() #7
  %19 = tail call noalias ptr @mi_malloc_small(i64 noundef 24) #7
  %20 = icmp eq ptr %19, null
  br i1 %20, label %21, label %lean_alloc_ctor.exit

21:                                               ; preds = %17
  tail call void @lean_internal_panic_out_of_memory() #8
  unreachable

lean_alloc_ctor.exit:                             ; preds = %17
  %22 = getelementptr inbounds nuw i8, ptr %19, i64 4
  store i32 1, ptr %19, align 4, !tbaa !4
  store i32 131096, ptr %22, align 4
  %23 = getelementptr inbounds nuw i8, ptr %19, i64 8
  store ptr %18, ptr %23, align 8, !tbaa !10
  %24 = getelementptr inbounds nuw i8, ptr %19, i64 16
  store ptr %1, ptr %24, align 8, !tbaa !10
  br label %25

25:                                               ; preds = %lean_alloc_ctor.exit, %12
  %.0 = phi ptr [ %16, %12 ], [ %19, %lean_alloc_ctor.exit ]
  ret ptr %.0
}